target datalayout = "e-m:e-p270:32:32-p271:32:32-p272:64:64-i64:64-i128:128-f80:128-n8:16:32:64-S128"
target triple = "x86_64-unknown-linux-gnu"

%"class.icu_75::UObject" = type { ptr }
%"class.icu_75::UnicodeStringAppendable" = type { %"class.icu_75::Appendable", ptr }
%"class.icu_75::Appendable" = type { %"class.icu_75::UObject" }
%"class.icu_75::AppendableWrapper" = type <{ ptr, i32, [4 x i8] }>

@_ZTVN6icu_7523UnicodeStringAppendableE = external unnamed_addr constant { [10 x ptr] }, align 8
@_ZTVN6icu_7510AppendableE = external unnamed_addr constant { [10 x ptr] }, align 8
@_ZTVN6icu_757UObjectE = external unnamed_addr constant { [5 x ptr] }, align 8

; Function Attrs: mustprogress nounwind uwtable
define linkonce_odr void @_ZN6icu_757UObjectC2Ev(ptr noundef nonnull align 8 dereferenceable(8) %this) unnamed_addr #0 comdat align 2 {
entry:
  %this.addr = alloca ptr, align 8
  store ptr %this, ptr %this.addr, align 8
  %this1 = load ptr, ptr %this.addr, align 8
  store ptr getelementptr inbounds ({ [5 x ptr] }, ptr @_ZTVN6icu_757UObjectE, i32 0, i32 0, i32 2), ptr %this1, align 8
  ret void
}

; Function Attrs: mustprogress nounwind uwtable
define linkonce_odr void @_ZN6icu_7510AppendableC2Ev(ptr noundef nonnull align 8 dereferenceable(8) %this) unnamed_addr #0 comdat align 2 {
entry:
  %this.addr = alloca ptr, align 8
  store ptr %this, ptr %this.addr, align 8
  %this1 = load ptr, ptr %this.addr, align 8
  call void @_ZN6icu_757UObjectC2Ev(ptr noundef nonnull align 8 dereferenceable(8) %this1) #11
  store ptr getelementptr inbounds ({ [10 x ptr] }, ptr @_ZTVN6icu_7510AppendableE, i32 0, i32 0, i32 2), ptr %this1, align 8
  ret void
}

; Function Attrs: mustprogress nounwind uwtable
define linkonce_odr void @_ZN6icu_7517AppendableWrapperC2ERNS_10AppendableE(ptr noundef nonnull align 8 dereferenceable(12) %this, ptr noundef nonnull align 8 dereferenceable(8) %appendable) unnamed_addr #0 comdat align 2 {
entry:
  %this.addr = alloca ptr, align 8
  %appendable.addr = alloca ptr, align 8
  store ptr %this, ptr %this.addr, align 8
  store ptr %appendable, ptr %appendable.addr, align 8
  %this1 = load ptr, ptr %this.addr, align 8
  %app = getelementptr inbounds %"class.icu_75::AppendableWrapper", ptr %this1, i32 0, i32 0
  %0 = load ptr, ptr %appendable.addr, align 8
  store ptr %0, ptr %app, align 8
  %len = getelementptr inbounds %"class.icu_75::AppendableWrapper", ptr %this1, i32 0, i32 1
  store i32 0, ptr %len, align 8
  ret void
}

; Function Attrs: mustprogress nounwind uwtable
define linkonce_odr void @_ZN6icu_7523UnicodeStringAppendableC2ERNS_13UnicodeStringE(ptr noundef nonnull align 8 dereferenceable(16) %this, ptr noundef nonnull align 8 dereferenceable(64) %s) unnamed_addr #0 comdat align 2 {
entry:
  %this.addr = alloca ptr, align 8
  %s.addr = alloca ptr, align 8
  store ptr %this, ptr %this.addr, align 8
  store ptr %s, ptr %s.addr, align 8
  %this1 = load ptr, ptr %this.addr, align 8
  call void @_ZN6icu_7510AppendableC2Ev(ptr noundef nonnull align 8 dereferenceable(8) %this1) #11
  store ptr getelementptr inbounds ({ [10 x ptr] }, ptr @_ZTVN6icu_7523UnicodeStringAppendableE, i32 0, i32 0, i32 2), ptr %this1, align 8
  %str = getelementptr inbounds %"class.icu_75::UnicodeStringAppendable", ptr %this1, i32 0, i32 1
  %0 = load ptr, ptr %s.addr, align 8
  store ptr %0, ptr %str, align 8
  ret void
}

; Function Attrs: mustprogress nounwind uwtable
define internal noundef signext i8 @_ZL9U_FAILURE10UErrorCode(i32 noundef %code) #0 {
entry:
  %code.addr = alloca i32, align 4
  store i32 %code, ptr %code.addr, align 4
  %0 = load i32, ptr %code.addr, align 4
  %cmp = icmp sgt i32 %0, 0
  %conv = zext i1 %cmp to i8
  ret i8 %conv
}

; Function Attrs: mustprogress uwtable
define noundef nonnull align 8 dereferenceable(64) ptr @_ZNK6icu_7513MessageFormat6formatEPKNS_11FormattableEPKNS_13UnicodeStringEiRS4_PNS_13FieldPositionER10UErrorCode(ptr noundef nonnull align 8 dereferenceable(816) %this, ptr noundef %arguments, ptr noundef %argumentNames, i32 noundef %cnt, ptr noundef nonnull align 8 dereferenceable(64) %appendTo, ptr noundef %pos, ptr noundef nonnull align 4 dereferenceable(4) %status) #1 align 2 personality ptr @__gxx_personality_v0 {
entry:
  %retval = alloca ptr, align 8
  %this.addr = alloca ptr, align 8
  %arguments.addr = alloca ptr, align 8
  %argumentNames.addr = alloca ptr, align 8
  %cnt.addr = alloca i32, align 4
  %appendTo.addr = alloca ptr, align 8
  %pos.addr = alloca ptr, align 8
  %status.addr = alloca ptr, align 8
  %usapp = alloca %"class.icu_75::UnicodeStringAppendable", align 8
  %app = alloca %"class.icu_75::AppendableWrapper", align 8
  %exn.slot = alloca ptr, align 8
  %ehselector.slot = alloca i32, align 4
  store ptr %this, ptr %this.addr, align 8
  store ptr %arguments, ptr %arguments.addr, align 8
  store ptr %argumentNames, ptr %argumentNames.addr, align 8
  store i32 %cnt, ptr %cnt.addr, align 4
  store ptr %appendTo, ptr %appendTo.addr, align 8
  store ptr %pos, ptr %pos.addr, align 8
  store ptr %status, ptr %status.addr, align 8
  %this1 = load ptr, ptr %this.addr, align 8
  %0 = load ptr, ptr %status.addr, align 8
  %1 = load i32, ptr %0, align 4
  %call = call noundef signext i8 @_ZL9U_FAILURE10UErrorCode(i32 noundef %1)
  %tobool = icmp ne i8 %call, 0
  br i1 %tobool, label %if.then, label %if.end

if.then:                                          ; preds = %entry
  %2 = load ptr, ptr %appendTo.addr, align 8
  store ptr %2, ptr %retval, align 8
  br label %return

if.end:                                           ; preds = %entry
  %3 = load ptr, ptr %appendTo.addr, align 8
  call void @_ZN6icu_7523UnicodeStringAppendableC2ERNS_13UnicodeStringE(ptr noundef nonnull align 8 dereferenceable(16) %usapp, ptr noundef nonnull align 8 dereferenceable(64) %3)
  invoke void @_ZN6icu_7517AppendableWrapperC2ERNS_10AppendableE(ptr noundef nonnull align 8 dereferenceable(12) %app, ptr noundef nonnull align 8 dereferenceable(8) %usapp)
          to label %invoke.cont unwind label %lpad

invoke.cont:                                      ; preds = %if.end
  %4 = load ptr, ptr %arguments.addr, align 8
  %5 = load ptr, ptr %argumentNames.addr, align 8
  %6 = load i32, ptr %cnt.addr, align 4
  %7 = load ptr, ptr %pos.addr, align 8
  %8 = load ptr, ptr %status.addr, align 8
  invoke void @_ZNK6icu_7513MessageFormat6formatEiPKvPKNS_11FormattableEPKNS_13UnicodeStringEiRNS_17AppendableWrapperEPNS_13FieldPositionER10UErrorCode(ptr noundef nonnull align 8 dereferenceable(816) %this1, i32 noundef 0, ptr noundef null, ptr noundef %4, ptr noundef %5, i32 noundef %6, ptr noundef nonnull align 8 dereferenceable(12) %app, ptr noundef %7, ptr noundef nonnull align 4 dereferenceable(4) %8)
          to label %invoke.cont2 unwind label %lpad

invoke.cont2:                                     ; preds = %invoke.cont
  %9 = load ptr, ptr %appendTo.addr, align 8
  store ptr %9, ptr %retval, align 8
  call void @_ZN6icu_7523UnicodeStringAppendableD1Ev(ptr noundef nonnull align 8 dereferenceable(16) %usapp) #11
  br label %return

lpad:                                             ; preds = %invoke.cont, %if.end
  %10 = landingpad { ptr, i32 }
          cleanup
  %11 = extractvalue { ptr, i32 } %10, 0
  store ptr %11, ptr %exn.slot, align 8
  %12 = extractvalue { ptr, i32 } %10, 1
  store i32 %12, ptr %ehselector.slot, align 4
  call void @_ZN6icu_7523UnicodeStringAppendableD1Ev(ptr noundef nonnull align 8 dereferenceable(16) %usapp) #11
  br label %eh.resume

return:                                           ; preds = %invoke.cont2, %if.then
  %13 = load ptr, ptr %retval, align 8
  ret ptr %13

eh.resume:                                        ; preds = %lpad
  %exn = load ptr, ptr %exn.slot, align 8
  %sel = load i32, ptr %ehselector.slot, align 4
  %lpad.val = insertvalue { ptr, i32 } poison, ptr %exn, 0
  %lpad.val3 = insertvalue { ptr, i32 } %lpad.val, i32 %sel, 1
  resume { ptr, i32 } %lpad.val3
}

; Function Attrs: mustprogress uwtable
define noundef nonnull align 8 dereferenceable(64) ptr @_ZNK6icu_7513MessageFormat6formatEPKNS_11FormattableEiRNS_13UnicodeStringERNS_13FieldPositionER10UErrorCode(ptr noundef nonnull align 8 dereferenceable(816) %this, ptr noundef %source, i32 noundef %cnt, ptr noundef nonnull align 8 dereferenceable(64) %appendTo, ptr noundef nonnull align 8 dereferenceable(20) %ignore, ptr noundef nonnull align 4 dereferenceable(4) %success) #1 align 2 {
entry:
  %this.addr = alloca ptr, align 8
  %source.addr = alloca ptr, align 8
  %cnt.addr = alloca i32, align 4
  %appendTo.addr = alloca ptr, align 8
  %ignore.addr = alloca ptr, align 8
  %success.addr = alloca ptr, align 8
  store ptr %this, ptr %this.addr, align 8
  store ptr %source, ptr %source.addr, align 8
  store i32 %cnt, ptr %cnt.addr, align 4
  store ptr %appendTo, ptr %appendTo.addr, align 8
  store ptr %ignore, ptr %ignore.addr, align 8
  store ptr %success, ptr %success.addr, align 8
  %this1 = load ptr, ptr %this.addr, align 8
  %0 = load ptr, ptr %source.addr, align 8
  %1 = load i32, ptr %cnt.addr, align 4
  %2 = load ptr, ptr %appendTo.addr, align 8
  %3 = load ptr, ptr %ignore.addr, align 8
  %4 = load ptr, ptr %success.addr, align 8
  %call = call noundef nonnull align 8 dereferenceable(64) ptr @_ZNK6icu_7513MessageFormat6formatEPKNS_11FormattableEPKNS_13UnicodeStringEiRS4_PNS_13FieldPositionER10UErrorCode(ptr noundef nonnull align 8 dereferenceable(816) %this1, ptr noundef %0, ptr noundef null, i32 noundef %1, ptr noundef nonnull align 8 dereferenceable(64) %2, ptr noundef %3, ptr noundef nonnull align 4 dereferenceable(4) %4)
  ret ptr %call
}